target datalayout = "e-m:e-p270:32:32-p271:32:32-p272:64:64-i64:64-i128:128-f80:128-n8:16:32:64-S128"
target triple = "x86_64-pc-linux-gnu"

@knl_node_bitmap = internal global ptr null, align 8

; Function Attrs: nounwind uwtable
define dso_local ptr @node_features_p_get_node_bitmap() #0 {
  %1 = alloca ptr, align 8
  %2 = load ptr, ptr @knl_node_bitmap, align 8
  %3 = icmp ne ptr %2, null
  br i1 %3, label %4, label %7

4:                                                ; preds = %0
  %5 = load ptr, ptr @knl_node_bitmap, align 8
  %6 = call ptr @bit_copy(ptr noundef %5)
  store ptr %6, ptr %1, align 8
  br label %8

7:                                                ; preds = %0
  store ptr null, ptr %1, align 8
  br label %8

8:                                                ; preds = %7, %4
  %9 = load ptr, ptr %1, align 8
  ret ptr %9
}