; Function Attrs: nounwind uwtable
define dso_local ptr @node_features_p_get_node_bitmap() local_unnamed_addr #0 {
  %1 = load ptr, ptr @knl_node_bitmap, align 8
  %.not = icmp eq ptr %1, null
  br i1 %.not, label %4, label %2

2:                                                ; preds = %0
  %3 = tail call ptr @bit_copy(ptr noundef nonnull %1) #14
  br label %4

4:                                                ; preds = %0, %2
  %.0 = phi ptr [ %3, %2 ], [ null, %0 ]
  ret ptr %.0
}